; Function Attrs: mustprogress nofree norecurse nosync nounwind willreturn memory(read, inaccessiblemem: none) uwtable
define noundef ptr @_ZNK19OpenColorIO_v2_5dev6Config13getDisplayAllEi(ptr noundef nonnull readonly align 8 captures(none) dereferenceable(8) %0, i32 noundef %1) local_unnamed_addr #12 align 2 personality ptr @__gxx_personality_v0 {
  %3 = icmp sgt i32 %1, -1
  %.pre = load ptr, ptr %0, align 8, !tbaa !34
  %.phi.trans.insert = getelementptr inbounds nuw i8, ptr %.pre, i64 376
  br i1 %3, label %._crit_edge, label %4

._crit_edge:                                      ; preds = %2
  %.pre5 = load ptr, ptr %.phi.trans.insert, align 8, !tbaa !228
  br label %14

4:                                                ; preds = %2
  %5 = getelementptr inbounds nuw i8, ptr %.pre, i64 384
  %6 = load ptr, ptr %5, align 8, !tbaa !229
  %7 = load ptr, ptr %.phi.trans.insert, align 8, !tbaa !228
  %8 = ptrtoint ptr %6 to i64
  %9 = ptrtoint ptr %7 to i64
  %10 = sub i64 %8, %9
  %11 = sdiv exact i64 %10, 88
  %12 = trunc i64 %11 to i32
  %13 = icmp slt i32 %1, %12
  br i1 %13, label %14, label %19

14:                                               ; preds = %._crit_edge, %4
  %15 = phi ptr [ %.pre5, %._crit_edge ], [ %7, %4 ]
  %16 = sext i32 %1 to i64
  %17 = getelementptr inbounds nuw %"struct.std::pair.96", ptr %15, i64 %16
  %18 = load ptr, ptr %17, align 8, !tbaa !29
  br label %19

19:                                               ; preds = %4, %14
  %.0 = phi ptr [ %18, %14 ], [ @.str.25, %4 ]
  ret ptr %.0
}